target datalayout = "e-m:e-p270:32:32-p271:32:32-p272:64:64-i64:64-i128:128-f80:128-n8:16:32:64-S128"
target triple = "x86_64-pc-linux-gnu"

%struct.dt_undo_lt_history_t = type { i32, i32, i32, i32, i32 }

; Function Attrs: nounwind uwtable
define void @dt_history_snapshot_undo_pop(ptr noundef %0, i32 noundef %1, ptr noundef %2, i32 noundef %3, ptr noundef %4) #0 {
  %6 = alloca ptr, align 8
  %7 = alloca i32, align 4
  %8 = alloca ptr, align 8
  %9 = alloca i32, align 4
  %10 = alloca ptr, align 8
  %11 = alloca ptr, align 8
  store ptr %0, ptr %6, align 8, !tbaa !57
  store i32 %1, ptr %7, align 4, !tbaa !6
  store ptr %2, ptr %8, align 8, !tbaa !57
  store i32 %3, ptr %9, align 4, !tbaa !6
  store ptr %4, ptr %10, align 8, !tbaa !64
  %12 = load i32, ptr %7, align 4, !tbaa !6
  %13 = icmp eq i32 %12, 128
  br i1 %13, label %14, label %48

14:                                               ; preds = %5
  call void @llvm.lifetime.start.p0(i64 8, ptr %11) #7
  %15 = load ptr, ptr %8, align 8, !tbaa !57
  store ptr %15, ptr %11, align 8, !tbaa !58
  %16 = load i32, ptr %9, align 4, !tbaa !6
  %17 = icmp eq i32 %16, 0
  br i1 %17, label %18, label %28

18:                                               ; preds = %14
  %19 = load ptr, ptr %11, align 8, !tbaa !58
  %20 = getelementptr inbounds nuw %struct.dt_undo_lt_history_t, ptr %19, i32 0, i32 0
  %21 = load i32, ptr %20, align 4, !tbaa !60
  %22 = load ptr, ptr %11, align 8, !tbaa !58
  %23 = getelementptr inbounds nuw %struct.dt_undo_lt_history_t, ptr %22, i32 0, i32 1
  %24 = load i32, ptr %23, align 4, !tbaa !63
  %25 = load ptr, ptr %11, align 8, !tbaa !58
  %26 = getelementptr inbounds nuw %struct.dt_undo_lt_history_t, ptr %25, i32 0, i32 2
  %27 = load i32, ptr %26, align 4, !tbaa !66
  call void @_history_snapshot_restore(i32 noundef %21, i32 noundef %24, i32 noundef %27)
  br label %38

28:                                               ; preds = %14
  %29 = load ptr, ptr %11, align 8, !tbaa !58
  %30 = getelementptr inbounds nuw %struct.dt_undo_lt_history_t, ptr %29, i32 0, i32 0
  %31 = load i32, ptr %30, align 4, !tbaa !60
  %32 = load ptr, ptr %11, align 8, !tbaa !58
  %33 = getelementptr inbounds nuw %struct.dt_undo_lt_history_t, ptr %32, i32 0, i32 3
  %34 = load i32, ptr %33, align 4, !tbaa !62
  %35 = load ptr, ptr %11, align 8, !tbaa !58
  %36 = getelementptr inbounds nuw %struct.dt_undo_lt_history_t, ptr %35, i32 0, i32 4
  %37 = load i32, ptr %36, align 4, !tbaa !67
  call void @_history_snapshot_restore(i32 noundef %31, i32 noundef %34, i32 noundef %37)
  br label %38

38:                                               ; preds = %28, %18
  %39 = load ptr, ptr %10, align 8, !tbaa !64
  %40 = load ptr, ptr %39, align 8, !tbaa !68
  %41 = load ptr, ptr %11, align 8, !tbaa !58
  %42 = getelementptr inbounds nuw %struct.dt_undo_lt_history_t, ptr %41, i32 0, i32 0
  %43 = load i32, ptr %42, align 4, !tbaa !60
  %44 = sext i32 %43 to i64
  %45 = inttoptr i64 %44 to ptr
  %46 = call ptr @g_list_append(ptr noundef %40, ptr noundef %45)
  %47 = load ptr, ptr %10, align 8, !tbaa !64
  store ptr %46, ptr %47, align 8, !tbaa !68
  call void @llvm.lifetime.end.p0(i64 8, ptr %11) #7
  br label %48

48:                                               ; preds = %38, %5
  ret void
}