; Function Attrs: nounwind uwtable
define void @dt_history_snapshot_undo_pop(ptr noundef readnone captures(none) %0, i32 noundef %1, ptr noundef readonly captures(none) %2, i32 noundef %3, ptr noundef captures(none) %4) local_unnamed_addr #0 {
  %6 = icmp eq i32 %1, 128
  br i1 %6, label %7, label %19

7:                                                ; preds = %5
  %8 = icmp eq i32 %3, 0
  %9 = load i32, ptr %2, align 4, !tbaa !56
  %. = select i1 %8, i64 4, i64 12
  %.15 = select i1 %8, i64 8, i64 16
  %10 = getelementptr inbounds nuw i8, ptr %2, i64 %.
  %11 = load i32, ptr %10, align 4, !tbaa !53
  %12 = getelementptr inbounds nuw i8, ptr %2, i64 %.15
  %13 = load i32, ptr %12, align 4, !tbaa !53
  tail call fastcc void @_history_snapshot_restore(i32 noundef %9, i32 noundef %11, i32 noundef %13)
  %14 = load ptr, ptr %4, align 8, !tbaa !60
  %15 = load i32, ptr %2, align 4, !tbaa !56
  %16 = sext i32 %15 to i64
  %17 = inttoptr i64 %16 to ptr
  %18 = tail call ptr @g_list_append(ptr noundef %14, ptr noundef %17) #7
  store ptr %18, ptr %4, align 8, !tbaa !60
  br label %19

19:                                               ; preds = %7, %5
  ret void
}